target datalayout = "e-m:e-p270:32:32-p271:32:32-p272:64:64-i64:64-i128:128-f80:128-n8:16:32:64-S128"
target triple = "x86_64-pc-linux-gnu"

%struct.ARKodeMemRec = type { ptr, double, ptr, i32, i32, double, double, ptr, i32, double, ptr, i32, i32, ptr, ptr, i32, ptr, ptr, i32, ptr, ptr, ptr, ptr, ptr, ptr, ptr, ptr, ptr, ptr, ptr, ptr, ptr, ptr, ptr, i32, ptr, ptr, i32, ptr, i32, ptr, ptr, ptr, ptr, ptr, ptr, ptr, ptr, ptr, ptr, ptr, ptr, ptr, ptr, ptr, ptr, ptr, ptr, ptr, ptr, ptr, ptr, ptr, ptr, ptr, ptr, i32, ptr, ptr, ptr, ptr, ptr, ptr, ptr, i32, ptr, ptr, ptr, i32, ptr, ptr, ptr, ptr, ptr, ptr, ptr, i32, i32, i32, i32, double, double, double, double, double, double, double, double, double, double, i32, ptr, i64, i32, i32, i32, i32, i64, i64, i32, i64, i64, i64, i64, i64, i64, i64, double, double, double, double, double, i32, double, double, i32, i32, i32, i32, i32, i32, i32, i32, ptr, i32, ptr, ptr, ptr, ptr, i32, i32, i32 }
%struct._generic_N_Vector = type { ptr, ptr, ptr }
%struct._generic_N_Vector_Ops = type { ptr, ptr, ptr, ptr, ptr, ptr, ptr, ptr, ptr, ptr, ptr, ptr, ptr, ptr, ptr, ptr, ptr, ptr, ptr, ptr, ptr, ptr, ptr, ptr, ptr, ptr, ptr, ptr, ptr, ptr, ptr, ptr, ptr, ptr, ptr, ptr, ptr, ptr, ptr, ptr, ptr, ptr, ptr, ptr, ptr, ptr, ptr, ptr, ptr, ptr, ptr, ptr, ptr, ptr, ptr, ptr }

@.str = private unnamed_addr constant [118 x i8] c"generated/home/dtcxzyw/WorkSpace/Projects/compilers/llvm-opt-benchmark/bench/sundials/sundials/src/arkode/arkode_ls.c\00", align 1
@.str.5 = private unnamed_addr constant [48 x i8] c"A required vector operation is not implemented.\00", align 1
@.str.12 = private unnamed_addr constant [45 x i8] c"Time step module is missing implicit RHS fcn\00", align 1
@__func__.arkLsDQJac = private unnamed_addr constant [11 x i8] c"arkLsDQJac\00", align 1
@.str.42 = private unnamed_addr constant [18 x i8] c"SUNMatrix is NULL\00", align 1
@.str.43 = private unnamed_addr constant [52 x i8] c"arkLsDQJac not implemented for this SUNMatrix type!\00", align 1
@.str.63 = private unnamed_addr constant [27 x i8] c"Integrator memory is NULL.\00", align 1
@.str.64 = private unnamed_addr constant [30 x i8] c"Linear solver memory is NULL.\00", align 1

; Function Attrs: nounwind uwtable
define i32 @arkLs_AccessARKODELMem(ptr noundef %0, ptr noundef %1, ptr noundef %2, ptr noundef %3) #0 {
  %5 = alloca i32, align 4
  %6 = alloca ptr, align 8
  %7 = alloca ptr, align 8
  %8 = alloca ptr, align 8
  %9 = alloca ptr, align 8
  %10 = alloca ptr, align 8
  %11 = alloca i32, align 4
  store ptr %0, ptr %6, align 8, !tbaa !3
  store ptr %1, ptr %7, align 8, !tbaa !155
  store ptr %2, ptr %8, align 8, !tbaa !170
  store ptr %3, ptr %9, align 8, !tbaa !157
  call void @llvm.lifetime.start.p0(i64 8, ptr %10) #7
  %12 = load ptr, ptr %6, align 8, !tbaa !3
  %13 = icmp eq ptr %12, null
  br i1 %13, label %14, label %16

14:                                               ; preds = %4
  %15 = load ptr, ptr %7, align 8, !tbaa !155
  call void (ptr, i32, i32, ptr, ptr, ptr, ...) @arkProcessError(ptr noundef null, i32 noundef -1, i32 noundef 4050, ptr noundef %15, ptr noundef @.str, ptr noundef @.str.63)
  store i32 -1, ptr %5, align 4
  store i32 1, ptr %11, align 4
  br label %35

16:                                               ; preds = %4
  %17 = load ptr, ptr %6, align 8, !tbaa !3
  %18 = load ptr, ptr %8, align 8, !tbaa !170
  store ptr %17, ptr %18, align 8, !tbaa !11
  %19 = load ptr, ptr %8, align 8, !tbaa !170
  %20 = load ptr, ptr %19, align 8, !tbaa !11
  %21 = getelementptr inbounds nuw %struct.ARKodeMemRec, ptr %20, i32 0, i32 42
  %22 = load ptr, ptr %21, align 8, !tbaa !41
  %23 = load ptr, ptr %8, align 8, !tbaa !170
  %24 = load ptr, ptr %23, align 8, !tbaa !11
  %25 = call ptr %22(ptr noundef %24)
  store ptr %25, ptr %10, align 8, !tbaa !3
  %26 = load ptr, ptr %10, align 8, !tbaa !3
  %27 = icmp eq ptr %26, null
  br i1 %27, label %28, label %32

28:                                               ; preds = %16
  %29 = load ptr, ptr %8, align 8, !tbaa !170
  %30 = load ptr, ptr %29, align 8, !tbaa !11
  %31 = load ptr, ptr %7, align 8, !tbaa !155
  call void (ptr, i32, i32, ptr, ptr, ptr, ...) @arkProcessError(ptr noundef %30, i32 noundef -2, i32 noundef 4058, ptr noundef %31, ptr noundef @.str, ptr noundef @.str.64)
  store i32 -2, ptr %5, align 4
  store i32 1, ptr %11, align 4
  br label %35

32:                                               ; preds = %16
  %33 = load ptr, ptr %10, align 8, !tbaa !3
  %34 = load ptr, ptr %9, align 8, !tbaa !157
  store ptr %33, ptr %34, align 8, !tbaa !44
  store i32 0, ptr %5, align 4
  store i32 1, ptr %11, align 4
  br label %35

35:                                               ; preds = %32, %28, %14
  call void @llvm.lifetime.end.p0(i64 8, ptr %10) #7
  %36 = load i32, ptr %5, align 4
  ret i32 %36
}

; Function Attrs: nounwind uwtable
define i32 @arkLsDQJac(double noundef %0, ptr noundef %1, ptr noundef %2, ptr noundef %3, ptr noundef %4, ptr noundef %5, ptr noundef %6, ptr noundef %7) #0 {
  %9 = alloca i32, align 4
  %10 = alloca double, align 8
  %11 = alloca ptr, align 8
  %12 = alloca ptr, align 8
  %13 = alloca ptr, align 8
  %14 = alloca ptr, align 8
  %15 = alloca ptr, align 8
  %16 = alloca ptr, align 8
  %17 = alloca ptr, align 8
  %18 = alloca ptr, align 8
  %19 = alloca ptr, align 8
  %20 = alloca ptr, align 8
  %21 = alloca i32, align 4
  %22 = alloca i32, align 4
  store double %0, ptr %10, align 8, !tbaa !77
  store ptr %1, ptr %11, align 8, !tbaa !78
  store ptr %2, ptr %12, align 8, !tbaa !78
  store ptr %3, ptr %13, align 8, !tbaa !9
  store ptr %4, ptr %14, align 8, !tbaa !3
  store ptr %5, ptr %15, align 8, !tbaa !78
  store ptr %6, ptr %16, align 8, !tbaa !78
  store ptr %7, ptr %17, align 8, !tbaa !78
  call void @llvm.lifetime.start.p0(i64 8, ptr %18) #7
  call void @llvm.lifetime.start.p0(i64 8, ptr %19) #7
  call void @llvm.lifetime.start.p0(i64 8, ptr %20) #7
  call void @llvm.lifetime.start.p0(i64 4, ptr %21) #7
  %23 = load ptr, ptr %14, align 8, !tbaa !3
  %24 = call i32 @arkLs_AccessARKODELMem(ptr noundef %23, ptr noundef @__func__.arkLsDQJac, ptr noundef %18, ptr noundef %19)
  store i32 %24, ptr %21, align 4, !tbaa !30
  %25 = load i32, ptr %21, align 4, !tbaa !30
  %26 = icmp ne i32 %25, 0
  br i1 %26, label %27, label %29

27:                                               ; preds = %8
  %28 = load i32, ptr %21, align 4, !tbaa !30
  store i32 %28, ptr %9, align 4
  store i32 1, ptr %22, align 4
  br label %143

29:                                               ; preds = %8
  %30 = load ptr, ptr %13, align 8, !tbaa !9
  %31 = icmp eq ptr %30, null
  br i1 %31, label %32, label %34

32:                                               ; preds = %29
  %33 = load ptr, ptr %18, align 8, !tbaa !11
  call void (ptr, i32, i32, ptr, ptr, ptr, ...) @arkProcessError(ptr noundef %33, i32 noundef -2, i32 noundef 2565, ptr noundef @__func__.arkLsDQJac, ptr noundef @.str, ptr noundef @.str.42)
  store i32 -2, ptr %9, align 4
  store i32 1, ptr %22, align 4
  br label %143

34:                                               ; preds = %29
  %35 = load ptr, ptr %18, align 8, !tbaa !11
  %36 = getelementptr inbounds nuw %struct.ARKodeMemRec, ptr %35, i32 0, i32 43
  %37 = load ptr, ptr %36, align 8, !tbaa !42
  %38 = load ptr, ptr %18, align 8, !tbaa !11
  %39 = call ptr %37(ptr noundef %38)
  store ptr %39, ptr %20, align 8, !tbaa !3
  %40 = load ptr, ptr %20, align 8, !tbaa !3
  %41 = icmp eq ptr %40, null
  br i1 %41, label %42, label %44

42:                                               ; preds = %34
  %43 = load ptr, ptr %18, align 8, !tbaa !11
  call void (ptr, i32, i32, ptr, ptr, ptr, ...) @arkProcessError(ptr noundef %43, i32 noundef -3, i32 noundef 2574, ptr noundef @__func__.arkLsDQJac, ptr noundef @.str, ptr noundef @.str.12)
  store i32 -3, ptr %9, align 4
  store i32 1, ptr %22, align 4
  br label %143

44:                                               ; preds = %34
  %45 = load ptr, ptr %18, align 8, !tbaa !11
  %46 = getelementptr inbounds nuw %struct.ARKodeMemRec, ptr %45, i32 0, i32 79
  %47 = load ptr, ptr %46, align 8, !tbaa !31
  %48 = getelementptr inbounds nuw %struct._generic_N_Vector, ptr %47, i32 0, i32 1
  %49 = load ptr, ptr %48, align 8, !tbaa !32
  %50 = getelementptr inbounds nuw %struct._generic_N_Vector_Ops, ptr %49, i32 0, i32 2
  %51 = load ptr, ptr %50, align 8, !tbaa !79
  %52 = icmp eq ptr %51, null
  br i1 %52, label %107, label %53

53:                                               ; preds = %44
  %54 = load ptr, ptr %18, align 8, !tbaa !11
  %55 = getelementptr inbounds nuw %struct.ARKodeMemRec, ptr %54, i32 0, i32 79
  %56 = load ptr, ptr %55, align 8, !tbaa !31
  %57 = getelementptr inbounds nuw %struct._generic_N_Vector, ptr %56, i32 0, i32 1
  %58 = load ptr, ptr %57, align 8, !tbaa !32
  %59 = getelementptr inbounds nuw %struct._generic_N_Vector_Ops, ptr %58, i32 0, i32 21
  %60 = load ptr, ptr %59, align 8, !tbaa !37
  %61 = icmp eq ptr %60, null
  br i1 %61, label %107, label %62

62:                                               ; preds = %53
  %63 = load ptr, ptr %18, align 8, !tbaa !11
  %64 = getelementptr inbounds nuw %struct.ARKodeMemRec, ptr %63, i32 0, i32 79
  %65 = load ptr, ptr %64, align 8, !tbaa !31
  %66 = getelementptr inbounds nuw %struct._generic_N_Vector, ptr %65, i32 0, i32 1
  %67 = load ptr, ptr %66, align 8, !tbaa !32
  %68 = getelementptr inbounds nuw %struct._generic_N_Vector_Ops, ptr %67, i32 0, i32 11
  %69 = load ptr, ptr %68, align 8, !tbaa !80
  %70 = icmp eq ptr %69, null
  br i1 %70, label %107, label %71

71:                                               ; preds = %62
  %72 = load ptr, ptr %18, align 8, !tbaa !11
  %73 = getelementptr inbounds nuw %struct.ARKodeMemRec, ptr %72, i32 0, i32 79
  %74 = load ptr, ptr %73, align 8, !tbaa !31
  %75 = getelementptr inbounds nuw %struct._generic_N_Vector, ptr %74, i32 0, i32 1
  %76 = load ptr, ptr %75, align 8, !tbaa !32
  %77 = getelementptr inbounds nuw %struct._generic_N_Vector_Ops, ptr %76, i32 0, i32 3
  %78 = load ptr, ptr %77, align 8, !tbaa !81
  %79 = icmp eq ptr %78, null
  br i1 %79, label %107, label %80

80:                                               ; preds = %71
  %81 = load ptr, ptr %18, align 8, !tbaa !11
  %82 = getelementptr inbounds nuw %struct.ARKodeMemRec, ptr %81, i32 0, i32 79
  %83 = load ptr, ptr %82, align 8, !tbaa !31
  %84 = getelementptr inbounds nuw %struct._generic_N_Vector, ptr %83, i32 0, i32 1
  %85 = load ptr, ptr %84, align 8, !tbaa !32
  %86 = getelementptr inbounds nuw %struct._generic_N_Vector_Ops, ptr %85, i32 0, i32 15
  %87 = load ptr, ptr %86, align 8, !tbaa !82
  %88 = icmp eq ptr %87, null
  br i1 %88, label %107, label %89

89:                                               ; preds = %80
  %90 = load ptr, ptr %18, align 8, !tbaa !11
  %91 = getelementptr inbounds nuw %struct.ARKodeMemRec, ptr %90, i32 0, i32 79
  %92 = load ptr, ptr %91, align 8, !tbaa !31
  %93 = getelementptr inbounds nuw %struct._generic_N_Vector, ptr %92, i32 0, i32 1
  %94 = load ptr, ptr %93, align 8, !tbaa !32
  %95 = getelementptr inbounds nuw %struct._generic_N_Vector_Ops, ptr %94, i32 0, i32 5
  %96 = load ptr, ptr %95, align 8, !tbaa !83
  %97 = icmp eq ptr %96, null
  br i1 %97, label %107, label %98

98:                                               ; preds = %89
  %99 = load ptr, ptr %18, align 8, !tbaa !11
  %100 = getelementptr inbounds nuw %struct.ARKodeMemRec, ptr %99, i32 0, i32 79
  %101 = load ptr, ptr %100, align 8, !tbaa !31
  %102 = getelementptr inbounds nuw %struct._generic_N_Vector, ptr %101, i32 0, i32 1
  %103 = load ptr, ptr %102, align 8, !tbaa !32
  %104 = getelementptr inbounds nuw %struct._generic_N_Vector_Ops, ptr %103, i32 0, i32 7
  %105 = load ptr, ptr %104, align 8, !tbaa !84
  %106 = icmp eq ptr %105, null
  br i1 %106, label %107, label %109

107:                                              ; preds = %98, %89, %80, %71, %62, %53, %44
  %108 = load ptr, ptr %18, align 8, !tbaa !11
  call void (ptr, i32, i32, ptr, ptr, ptr, ...) @arkProcessError(ptr noundef %108, i32 noundef -3, i32 noundef 2588, ptr noundef @__func__.arkLsDQJac, ptr noundef @.str, ptr noundef @.str.5)
  store i32 -3, ptr %9, align 4
  store i32 1, ptr %22, align 4
  br label %143

109:                                              ; preds = %98
  %110 = load ptr, ptr %13, align 8, !tbaa !9
  %111 = call i32 @SUNMatGetID(ptr noundef %110)
  %112 = icmp eq i32 %111, 0
  br i1 %112, label %113, label %123

113:                                              ; preds = %109
  %114 = load double, ptr %10, align 8, !tbaa !77
  %115 = load ptr, ptr %11, align 8, !tbaa !78
  %116 = load ptr, ptr %12, align 8, !tbaa !78
  %117 = load ptr, ptr %13, align 8, !tbaa !9
  %118 = load ptr, ptr %18, align 8, !tbaa !11
  %119 = load ptr, ptr %19, align 8, !tbaa !44
  %120 = load ptr, ptr %20, align 8, !tbaa !3
  %121 = load ptr, ptr %15, align 8, !tbaa !78
  %122 = call i32 @arkLsDenseDQJac(double noundef %114, ptr noundef %115, ptr noundef %116, ptr noundef %117, ptr noundef %118, ptr noundef %119, ptr noundef %120, ptr noundef %121)
  store i32 %122, ptr %21, align 4, !tbaa !30
  br label %141

123:                                              ; preds = %109
  %124 = load ptr, ptr %13, align 8, !tbaa !9
  %125 = call i32 @SUNMatGetID(ptr noundef %124)
  %126 = icmp eq i32 %125, 3
  br i1 %126, label %127, label %138

127:                                              ; preds = %123
  %128 = load double, ptr %10, align 8, !tbaa !77
  %129 = load ptr, ptr %11, align 8, !tbaa !78
  %130 = load ptr, ptr %12, align 8, !tbaa !78
  %131 = load ptr, ptr %13, align 8, !tbaa !9
  %132 = load ptr, ptr %18, align 8, !tbaa !11
  %133 = load ptr, ptr %19, align 8, !tbaa !44
  %134 = load ptr, ptr %20, align 8, !tbaa !3
  %135 = load ptr, ptr %15, align 8, !tbaa !78
  %136 = load ptr, ptr %16, align 8, !tbaa !78
  %137 = call i32 @arkLsBandDQJac(double noundef %128, ptr noundef %129, ptr noundef %130, ptr noundef %131, ptr noundef %132, ptr noundef %133, ptr noundef %134, ptr noundef %135, ptr noundef %136)
  store i32 %137, ptr %21, align 4, !tbaa !30
  br label %140

138:                                              ; preds = %123
  %139 = load ptr, ptr %18, align 8, !tbaa !11
  call void (ptr, i32, i32, ptr, ptr, ptr, ...) @arkProcessError(ptr noundef %139, i32 noundef -3, i32 noundef 2604, ptr noundef @__func__.arkLsDQJac, ptr noundef @.str, ptr noundef @.str.43)
  store i32 -3, ptr %21, align 4, !tbaa !30
  br label %140

140:                                              ; preds = %138, %127
  br label %141

141:                                              ; preds = %140, %113
  %142 = load i32, ptr %21, align 4, !tbaa !30
  store i32 %142, ptr %9, align 4
  store i32 1, ptr %22, align 4
  br label %143

143:                                              ; preds = %141, %107, %42, %32, %27
  call void @llvm.lifetime.end.p0(i64 4, ptr %21) #7
  call void @llvm.lifetime.end.p0(i64 8, ptr %20) #7
  call void @llvm.lifetime.end.p0(i64 8, ptr %19) #7
  call void @llvm.lifetime.end.p0(i64 8, ptr %18) #7
  %144 = load i32, ptr %9, align 4
  ret i32 %144
}