; Function Attrs: nounwind uwtable
define i32 @arkLsDQJac(double noundef %0, ptr noundef %1, ptr noundef %2, ptr noundef %3, ptr noundef %4, ptr noundef %5, ptr noundef %6, ptr readnone captures(none) %7) #0 {
  %9 = icmp eq ptr %4, null
  br i1 %9, label %10, label %11

10:                                               ; preds = %8
  tail call void (ptr, i32, i32, ptr, ptr, ptr, ...) @arkProcessError(ptr noundef null, i32 noundef -1, i32 noundef 4050, ptr noundef nonnull @__func__.arkLsDQJac, ptr noundef nonnull @.str, ptr noundef nonnull @.str.63) #13
  br label %arkLs_AccessARKODELMem.exit.thread

11:                                               ; preds = %8
  %12 = getelementptr inbounds nuw i8, ptr %4, i64 320
  %13 = load ptr, ptr %12, align 8, !tbaa !33
  %14 = tail call ptr %13(ptr noundef nonnull %4) #13
  %15 = icmp eq ptr %14, null
  br i1 %15, label %16, label %arkLs_AccessARKODELMem.exit

16:                                               ; preds = %11
  tail call void (ptr, i32, i32, ptr, ptr, ptr, ...) @arkProcessError(ptr noundef nonnull %4, i32 noundef -2, i32 noundef 4058, ptr noundef nonnull @__func__.arkLsDQJac, ptr noundef nonnull @.str, ptr noundef nonnull @.str.64) #13
  br label %arkLs_AccessARKODELMem.exit.thread

arkLs_AccessARKODELMem.exit:                      ; preds = %11
  %17 = icmp eq ptr %3, null
  br i1 %17, label %18, label %19

18:                                               ; preds = %arkLs_AccessARKODELMem.exit
  tail call void (ptr, i32, i32, ptr, ptr, ptr, ...) @arkProcessError(ptr noundef nonnull %4, i32 noundef -2, i32 noundef 2565, ptr noundef nonnull @__func__.arkLsDQJac, ptr noundef nonnull @.str, ptr noundef nonnull @.str.42) #13
  br label %arkLs_AccessARKODELMem.exit.thread

19:                                               ; preds = %arkLs_AccessARKODELMem.exit
  %20 = getelementptr inbounds nuw i8, ptr %4, i64 328
  %21 = load ptr, ptr %20, align 8, !tbaa !34
  %22 = tail call ptr %21(ptr noundef nonnull %4) #13
  %23 = icmp eq ptr %22, null
  br i1 %23, label %24, label %25

24:                                               ; preds = %19
  tail call void (ptr, i32, i32, ptr, ptr, ptr, ...) @arkProcessError(ptr noundef nonnull %4, i32 noundef -3, i32 noundef 2574, ptr noundef nonnull @__func__.arkLsDQJac, ptr noundef nonnull @.str, ptr noundef nonnull @.str.12) #13
  br label %arkLs_AccessARKODELMem.exit.thread

25:                                               ; preds = %19
  %26 = getelementptr inbounds nuw i8, ptr %4, i64 616
  %27 = load ptr, ptr %26, align 8, !tbaa !23
  %28 = getelementptr inbounds nuw i8, ptr %27, i64 8
  %29 = load ptr, ptr %28, align 8, !tbaa !24
  %30 = getelementptr inbounds nuw i8, ptr %29, i64 16
  %31 = load ptr, ptr %30, align 8, !tbaa !67
  %32 = icmp eq ptr %31, null
  br i1 %32, label %57, label %33

33:                                               ; preds = %25
  %34 = getelementptr inbounds nuw i8, ptr %29, i64 168
  %35 = load ptr, ptr %34, align 8, !tbaa !29
  %36 = icmp eq ptr %35, null
  br i1 %36, label %57, label %37

37:                                               ; preds = %33
  %38 = getelementptr inbounds nuw i8, ptr %29, i64 88
  %39 = load ptr, ptr %38, align 8, !tbaa !68
  %40 = icmp eq ptr %39, null
  br i1 %40, label %57, label %41

41:                                               ; preds = %37
  %42 = getelementptr inbounds nuw i8, ptr %29, i64 24
  %43 = load ptr, ptr %42, align 8, !tbaa !69
  %44 = icmp eq ptr %43, null
  br i1 %44, label %57, label %45

45:                                               ; preds = %41
  %46 = getelementptr inbounds nuw i8, ptr %29, i64 120
  %47 = load ptr, ptr %46, align 8, !tbaa !70
  %48 = icmp eq ptr %47, null
  br i1 %48, label %57, label %49

49:                                               ; preds = %45
  %50 = getelementptr inbounds nuw i8, ptr %29, i64 40
  %51 = load ptr, ptr %50, align 8, !tbaa !71
  %52 = icmp eq ptr %51, null
  br i1 %52, label %57, label %53

53:                                               ; preds = %49
  %54 = getelementptr inbounds nuw i8, ptr %29, i64 56
  %55 = load ptr, ptr %54, align 8, !tbaa !72
  %56 = icmp eq ptr %55, null
  br i1 %56, label %57, label %58

57:                                               ; preds = %53, %49, %45, %41, %37, %33, %25
  tail call void (ptr, i32, i32, ptr, ptr, ptr, ...) @arkProcessError(ptr noundef nonnull %4, i32 noundef -3, i32 noundef 2588, ptr noundef nonnull @__func__.arkLsDQJac, ptr noundef nonnull @.str, ptr noundef nonnull @.str.5) #13
  br label %arkLs_AccessARKODELMem.exit.thread

58:                                               ; preds = %53
  %59 = tail call i32 @SUNMatGetID(ptr noundef nonnull %3) #13
  %60 = icmp eq i32 %59, 0
  br i1 %60, label %61, label %63

61:                                               ; preds = %58
  %62 = tail call i32 @arkLsDenseDQJac(double noundef %0, ptr noundef %1, ptr noundef %2, ptr noundef nonnull %3, ptr noundef nonnull %4, ptr noundef nonnull %14, ptr noundef nonnull %22, ptr noundef %5)
  br label %arkLs_AccessARKODELMem.exit.thread

63:                                               ; preds = %58
  %64 = tail call i32 @SUNMatGetID(ptr noundef nonnull %3) #13
  %65 = icmp eq i32 %64, 3
  br i1 %65, label %66, label %68

66:                                               ; preds = %63
  %67 = tail call i32 @arkLsBandDQJac(double noundef %0, ptr noundef %1, ptr noundef %2, ptr noundef nonnull %3, ptr noundef nonnull %4, ptr noundef nonnull %14, ptr noundef nonnull %22, ptr noundef %5, ptr noundef %6)
  br label %arkLs_AccessARKODELMem.exit.thread

68:                                               ; preds = %63
  tail call void (ptr, i32, i32, ptr, ptr, ptr, ...) @arkProcessError(ptr noundef nonnull %4, i32 noundef -3, i32 noundef 2604, ptr noundef nonnull @__func__.arkLsDQJac, ptr noundef nonnull @.str, ptr noundef nonnull @.str.43) #13
  br label %arkLs_AccessARKODELMem.exit.thread

arkLs_AccessARKODELMem.exit.thread:               ; preds = %16, %10, %61, %68, %66, %57, %24, %18
  %.021 = phi i32 [ -2, %18 ], [ -3, %24 ], [ -3, %57 ], [ %62, %61 ], [ %67, %66 ], [ -3, %68 ], [ -2, %16 ], [ -1, %10 ]
  ret i32 %.021
}